; Function Attrs: mustprogress nofree norecurse nosync nounwind willreturn memory(argmem: readwrite) uwtable
define range(i32 0, 2) i32 @ossl_quic_stream_map_notify_reset_stream_acked(ptr noundef readnone captures(none) %0, ptr noundef captures(none) %1) local_unnamed_addr #5 {
  %3 = getelementptr inbounds nuw i8, ptr %1, i64 256
  %4 = load i64, ptr %3, align 8
  %5 = lshr i64 %4, 8
  %trunc = trunc i64 %5 to i8
  switch i8 %trunc, label %10 [
    i8 6, label %9
    i8 5, label %6
  ]

6:                                                ; preds = %2
  %7 = and i64 %4, -65281
  %8 = or disjoint i64 %7, 1536
  store i64 %8, ptr %3, align 8
  br label %10

9:                                                ; preds = %2
  br label %10

10:                                               ; preds = %2, %9, %6
  %.0 = phi i32 [ 1, %6 ], [ 1, %9 ], [ 0, %2 ]
  ret i32 %.0
}